target datalayout = "e-m:e-p270:32:32-p271:32:32-p272:64:64-i64:64-i128:128-f80:128-n8:16:32:64-S128"
target triple = "x86_64-pc-linux-gnu"

; Function Attrs: nounwind uwtable
define hidden void @cdef_copy_rect8_8bit_to_16bit_c(ptr noundef %0, i32 noundef %1, ptr noundef %2, i32 noundef %3, i32 noundef %4, i32 noundef %5) #0 {
  %7 = alloca ptr, align 8
  %8 = alloca i32, align 4
  %9 = alloca ptr, align 8
  %10 = alloca i32, align 4
  %11 = alloca i32, align 4
  %12 = alloca i32, align 4
  %13 = alloca i32, align 4
  %14 = alloca i32, align 4
  store ptr %0, ptr %7, align 8
  store i32 %1, ptr %8, align 4
  store ptr %2, ptr %9, align 8
  store i32 %3, ptr %10, align 4
  store i32 %4, ptr %11, align 4
  store i32 %5, ptr %12, align 4
  store i32 0, ptr %13, align 4
  br label %15

15:                                               ; preds = %47, %6
  %16 = load i32, ptr %13, align 4
  %17 = load i32, ptr %11, align 4
  %18 = icmp slt i32 %16, %17
  br i1 %18, label %19, label %50

19:                                               ; preds = %15
  store i32 0, ptr %14, align 4
  br label %20

20:                                               ; preds = %43, %19
  %21 = load i32, ptr %14, align 4
  %22 = load i32, ptr %12, align 4
  %23 = icmp slt i32 %21, %22
  br i1 %23, label %24, label %46

24:                                               ; preds = %20
  %25 = load ptr, ptr %9, align 8
  %26 = load i32, ptr %13, align 4
  %27 = load i32, ptr %10, align 4
  %28 = mul nsw i32 %26, %27
  %29 = load i32, ptr %14, align 4
  %30 = add nsw i32 %28, %29
  %31 = sext i32 %30 to i64
  %32 = getelementptr inbounds i8, ptr %25, i64 %31
  %33 = load i8, ptr %32, align 1
  %34 = zext i8 %33 to i16
  %35 = load ptr, ptr %7, align 8
  %36 = load i32, ptr %13, align 4
  %37 = load i32, ptr %8, align 4
  %38 = mul nsw i32 %36, %37
  %39 = load i32, ptr %14, align 4
  %40 = add nsw i32 %38, %39
  %41 = sext i32 %40 to i64
  %42 = getelementptr inbounds i16, ptr %35, i64 %41
  store i16 %34, ptr %42, align 2
  br label %43

43:                                               ; preds = %24
  %44 = load i32, ptr %14, align 4
  %45 = add nsw i32 %44, 1
  store i32 %45, ptr %14, align 4
  br label %20, !llvm.loop !9

46:                                               ; preds = %20
  br label %47

47:                                               ; preds = %46
  %48 = load i32, ptr %13, align 4
  %49 = add nsw i32 %48, 1
  store i32 %49, ptr %13, align 4
  br label %15, !llvm.loop !10

50:                                               ; preds = %15
  ret void
}