; Function Attrs: nofree norecurse nosync nounwind memory(argmem: readwrite) uwtable
define hidden void @cdef_copy_rect8_8bit_to_16bit_c(ptr nocapture noundef writeonly %0, i32 noundef %1, ptr nocapture noundef readonly %2, i32 noundef %3, i32 noundef %4, i32 noundef %5) local_unnamed_addr #1 {
  %7 = icmp sgt i32 %4, 0
  %8 = icmp sgt i32 %5, 0
  %or.cond = and i1 %7, %8
  br i1 %or.cond, label %.preheader.us.preheader, label %._crit_edge16

.preheader.us.preheader:                          ; preds = %6
  %9 = sext i32 %3 to i64
  %10 = sext i32 %1 to i64
  %wide.trip.count22 = zext nneg i32 %4 to i64
  %wide.trip.count = zext nneg i32 %5 to i64
  br label %.preheader.us

.preheader.us:                                    ; preds = %.preheader.us.preheader, %._crit_edge.us
  %indvars.iv19 = phi i64 [ 0, %.preheader.us.preheader ], [ %indvars.iv.next20, %._crit_edge.us ]
  %11 = mul nsw i64 %indvars.iv19, %9
  %12 = mul nsw i64 %indvars.iv19, %10
  %invariant.gep = getelementptr i8, ptr %2, i64 %11
  %invariant.gep24 = getelementptr i16, ptr %0, i64 %12
  br label %13

13:                                               ; preds = %.preheader.us, %13
  %indvars.iv = phi i64 [ 0, %.preheader.us ], [ %indvars.iv.next, %13 ]
  %gep = getelementptr i8, ptr %invariant.gep, i64 %indvars.iv
  %14 = load i8, ptr %gep, align 1
  %15 = zext i8 %14 to i16
  %gep25 = getelementptr i16, ptr %invariant.gep24, i64 %indvars.iv
  store i16 %15, ptr %gep25, align 2
  %indvars.iv.next = add nuw nsw i64 %indvars.iv, 1
  %exitcond.not = icmp eq i64 %indvars.iv.next, %wide.trip.count
  br i1 %exitcond.not, label %._crit_edge.us, label %13, !llvm.loop !9

._crit_edge.us:                                   ; preds = %13
  %indvars.iv.next20 = add nuw nsw i64 %indvars.iv19, 1
  %exitcond23.not = icmp eq i64 %indvars.iv.next20, %wide.trip.count22
  br i1 %exitcond23.not, label %._crit_edge16, label %.preheader.us, !llvm.loop !10

._crit_edge16:                                    ; preds = %._crit_edge.us, %6
  ret void
}